target datalayout = "e-m:e-p270:32:32-p271:32:32-p272:64:64-i64:64-i128:128-f80:128-n8:16:32:64-S128"
target triple = "x86_64-pc-linux-gnu"

%struct._generic_N_Vector = type { ptr, ptr, ptr }
%struct._SUNQRData = type { ptr, ptr, ptr }

; Function Attrs: nounwind uwtable
define i32 @SUNQRAdd_DCGS2_SB(ptr noundef %0, ptr noundef %1, ptr noundef %2, i32 noundef %3, i32 noundef %4, ptr noundef %5) #0 {
  %7 = alloca ptr, align 8
  %8 = alloca ptr, align 8
  %9 = alloca ptr, align 8
  %10 = alloca i32, align 4
  %11 = alloca i32, align 4
  %12 = alloca ptr, align 8
  %13 = alloca ptr, align 8
  %14 = alloca i64, align 8
  %15 = alloca ptr, align 8
  store ptr %0, ptr %7, align 8, !tbaa !3
  store ptr %1, ptr %8, align 8, !tbaa !12
  store ptr %2, ptr %9, align 8, !tbaa !14
  store i32 %3, ptr %10, align 4, !tbaa !10
  store i32 %4, ptr %11, align 4, !tbaa !10
  store ptr %5, ptr %12, align 8, !tbaa !23
  call void @llvm.lifetime.start.p0(i64 8, ptr %13) #5
  %16 = load ptr, ptr %7, align 8, !tbaa !3
  %17 = getelementptr inbounds ptr, ptr %16, i64 0
  %18 = load ptr, ptr %17, align 8, !tbaa !14
  %19 = getelementptr inbounds nuw %struct._generic_N_Vector, ptr %18, i32 0, i32 2
  %20 = load ptr, ptr %19, align 8, !tbaa !16
  store ptr %20, ptr %13, align 8, !tbaa !20
  call void @llvm.lifetime.start.p0(i64 8, ptr %14) #5
  call void @llvm.lifetime.start.p0(i64 8, ptr %15) #5
  %21 = load ptr, ptr %12, align 8, !tbaa !23
  store ptr %21, ptr %15, align 8, !tbaa !24
  %22 = load ptr, ptr %9, align 8, !tbaa !14
  %23 = load ptr, ptr %15, align 8, !tbaa !24
  %24 = getelementptr inbounds nuw %struct._SUNQRData, ptr %23, i32 0, i32 0
  %25 = load ptr, ptr %24, align 8, !tbaa !26
  call void @N_VScale(double noundef 1.000000e+00, ptr noundef %22, ptr noundef %25)
  %26 = load i32, ptr %10, align 4, !tbaa !10
  %27 = icmp sgt i32 %26, 0
  br i1 %27, label %28, label %199

28:                                               ; preds = %6
  %29 = load i32, ptr %10, align 4, !tbaa !10
  %30 = icmp eq i32 %29, 1
  br i1 %30, label %31, label %44

31:                                               ; preds = %28
  %32 = load i32, ptr %10, align 4, !tbaa !10
  %33 = load ptr, ptr %15, align 8, !tbaa !24
  %34 = getelementptr inbounds nuw %struct._SUNQRData, ptr %33, i32 0, i32 0
  %35 = load ptr, ptr %34, align 8, !tbaa !26
  %36 = load ptr, ptr %7, align 8, !tbaa !3
  %37 = load ptr, ptr %8, align 8, !tbaa !12
  %38 = load i32, ptr %10, align 4, !tbaa !10
  %39 = load i32, ptr %11, align 4, !tbaa !10
  %40 = mul nsw i32 %38, %39
  %41 = sext i32 %40 to i64
  %42 = getelementptr inbounds double, ptr %37, i64 %41
  %43 = call i32 @N_VDotProdMulti(i32 noundef %32, ptr noundef %35, ptr noundef %36, ptr noundef %42)
  br label %177

44:                                               ; preds = %28
  %45 = load i32, ptr %10, align 4, !tbaa !10
  %46 = icmp sgt i32 %45, 1
  br i1 %46, label %47, label %176

47:                                               ; preds = %44
  %48 = load i32, ptr %10, align 4, !tbaa !10
  %49 = load ptr, ptr %15, align 8, !tbaa !24
  %50 = getelementptr inbounds nuw %struct._SUNQRData, ptr %49, i32 0, i32 0
  %51 = load ptr, ptr %50, align 8, !tbaa !26
  %52 = load ptr, ptr %7, align 8, !tbaa !3
  %53 = load ptr, ptr %15, align 8, !tbaa !24
  %54 = getelementptr inbounds nuw %struct._SUNQRData, ptr %53, i32 0, i32 2
  %55 = load ptr, ptr %54, align 8, !tbaa !30
  %56 = call i32 @N_VDotProdMultiLocal(i32 noundef %48, ptr noundef %51, ptr noundef %52, ptr noundef %55)
  %57 = load i32, ptr %10, align 4, !tbaa !10
  %58 = sub nsw i32 %57, 1
  %59 = load ptr, ptr %7, align 8, !tbaa !3
  %60 = load i32, ptr %10, align 4, !tbaa !10
  %61 = sub nsw i32 %60, 1
  %62 = sext i32 %61 to i64
  %63 = getelementptr inbounds ptr, ptr %59, i64 %62
  %64 = load ptr, ptr %63, align 8, !tbaa !14
  %65 = load ptr, ptr %7, align 8, !tbaa !3
  %66 = load ptr, ptr %15, align 8, !tbaa !24
  %67 = getelementptr inbounds nuw %struct._SUNQRData, ptr %66, i32 0, i32 2
  %68 = load ptr, ptr %67, align 8, !tbaa !30
  %69 = load i32, ptr %10, align 4, !tbaa !10
  %70 = sext i32 %69 to i64
  %71 = getelementptr inbounds double, ptr %68, i64 %70
  %72 = call i32 @N_VDotProdMultiLocal(i32 noundef %58, ptr noundef %64, ptr noundef %65, ptr noundef %71)
  %73 = load i32, ptr %10, align 4, !tbaa !10
  %74 = load i32, ptr %10, align 4, !tbaa !10
  %75 = add nsw i32 %73, %74
  %76 = sub nsw i32 %75, 1
  %77 = load ptr, ptr %15, align 8, !tbaa !24
  %78 = getelementptr inbounds nuw %struct._SUNQRData, ptr %77, i32 0, i32 0
  %79 = load ptr, ptr %78, align 8, !tbaa !26
  %80 = load ptr, ptr %15, align 8, !tbaa !24
  %81 = getelementptr inbounds nuw %struct._SUNQRData, ptr %80, i32 0, i32 2
  %82 = load ptr, ptr %81, align 8, !tbaa !30
  %83 = call i32 @N_VDotProdMultiAllReduce(i32 noundef %76, ptr noundef %79, ptr noundef %82)
  store i64 0, ptr %14, align 8, !tbaa !28
  br label %84

84:                                               ; preds = %104, %47
  %85 = load i64, ptr %14, align 8, !tbaa !28
  %86 = load i32, ptr %10, align 4, !tbaa !10
  %87 = sext i32 %86 to i64
  %88 = icmp slt i64 %85, %87
  br i1 %88, label %89, label %107

89:                                               ; preds = %84
  %90 = load ptr, ptr %15, align 8, !tbaa !24
  %91 = getelementptr inbounds nuw %struct._SUNQRData, ptr %90, i32 0, i32 2
  %92 = load ptr, ptr %91, align 8, !tbaa !30
  %93 = load i64, ptr %14, align 8, !tbaa !28
  %94 = getelementptr inbounds double, ptr %92, i64 %93
  %95 = load double, ptr %94, align 8, !tbaa !21
  %96 = load ptr, ptr %8, align 8, !tbaa !12
  %97 = load i32, ptr %10, align 4, !tbaa !10
  %98 = load i32, ptr %11, align 4, !tbaa !10
  %99 = mul nsw i32 %97, %98
  %100 = sext i32 %99 to i64
  %101 = load i64, ptr %14, align 8, !tbaa !28
  %102 = add nsw i64 %100, %101
  %103 = getelementptr inbounds double, ptr %96, i64 %102
  store double %95, ptr %103, align 8, !tbaa !21
  br label %104

104:                                              ; preds = %89
  %105 = load i64, ptr %14, align 8, !tbaa !28
  %106 = add nsw i64 %105, 1
  store i64 %106, ptr %14, align 8, !tbaa !28
  br label %84

107:                                              ; preds = %84
  %108 = load i32, ptr %10, align 4, !tbaa !10
  %109 = sub nsw i32 %108, 1
  %110 = load ptr, ptr %15, align 8, !tbaa !24
  %111 = getelementptr inbounds nuw %struct._SUNQRData, ptr %110, i32 0, i32 2
  %112 = load ptr, ptr %111, align 8, !tbaa !30
  %113 = load i32, ptr %10, align 4, !tbaa !10
  %114 = sext i32 %113 to i64
  %115 = getelementptr inbounds double, ptr %112, i64 %114
  %116 = load ptr, ptr %7, align 8, !tbaa !3
  %117 = load ptr, ptr %15, align 8, !tbaa !24
  %118 = getelementptr inbounds nuw %struct._SUNQRData, ptr %117, i32 0, i32 1
  %119 = load ptr, ptr %118, align 8, !tbaa !31
  %120 = call i32 @N_VLinearCombination(i32 noundef %109, ptr noundef %115, ptr noundef %116, ptr noundef %119)
  %121 = load ptr, ptr %7, align 8, !tbaa !3
  %122 = load i32, ptr %10, align 4, !tbaa !10
  %123 = sub nsw i32 %122, 1
  %124 = sext i32 %123 to i64
  %125 = getelementptr inbounds ptr, ptr %121, i64 %124
  %126 = load ptr, ptr %125, align 8, !tbaa !14
  %127 = load ptr, ptr %15, align 8, !tbaa !24
  %128 = getelementptr inbounds nuw %struct._SUNQRData, ptr %127, i32 0, i32 1
  %129 = load ptr, ptr %128, align 8, !tbaa !31
  %130 = load ptr, ptr %7, align 8, !tbaa !3
  %131 = load i32, ptr %10, align 4, !tbaa !10
  %132 = sub nsw i32 %131, 1
  %133 = sext i32 %132 to i64
  %134 = getelementptr inbounds ptr, ptr %130, i64 %133
  %135 = load ptr, ptr %134, align 8, !tbaa !14
  call void @N_VLinearSum(double noundef 1.000000e+00, ptr noundef %126, double noundef -1.000000e+00, ptr noundef %129, ptr noundef %135)
  store i64 0, ptr %14, align 8, !tbaa !28
  br label %136

136:                                              ; preds = %172, %107
  %137 = load i64, ptr %14, align 8, !tbaa !28
  %138 = load i32, ptr %10, align 4, !tbaa !10
  %139 = sub nsw i32 %138, 1
  %140 = sext i32 %139 to i64
  %141 = icmp slt i64 %137, %140
  br i1 %141, label %142, label %175

142:                                              ; preds = %136
  %143 = load ptr, ptr %8, align 8, !tbaa !12
  %144 = load i32, ptr %10, align 4, !tbaa !10
  %145 = sub nsw i32 %144, 1
  %146 = load i32, ptr %11, align 4, !tbaa !10
  %147 = mul nsw i32 %145, %146
  %148 = sext i32 %147 to i64
  %149 = load i64, ptr %14, align 8, !tbaa !28
  %150 = add nsw i64 %148, %149
  %151 = getelementptr inbounds double, ptr %143, i64 %150
  %152 = load double, ptr %151, align 8, !tbaa !21
  %153 = load ptr, ptr %15, align 8, !tbaa !24
  %154 = getelementptr inbounds nuw %struct._SUNQRData, ptr %153, i32 0, i32 2
  %155 = load ptr, ptr %154, align 8, !tbaa !30
  %156 = load i32, ptr %10, align 4, !tbaa !10
  %157 = sext i32 %156 to i64
  %158 = load i64, ptr %14, align 8, !tbaa !28
  %159 = add nsw i64 %157, %158
  %160 = getelementptr inbounds double, ptr %155, i64 %159
  %161 = load double, ptr %160, align 8, !tbaa !21
  %162 = fadd double %152, %161
  %163 = load ptr, ptr %8, align 8, !tbaa !12
  %164 = load i32, ptr %10, align 4, !tbaa !10
  %165 = sub nsw i32 %164, 1
  %166 = load i32, ptr %11, align 4, !tbaa !10
  %167 = mul nsw i32 %165, %166
  %168 = sext i32 %167 to i64
  %169 = load i64, ptr %14, align 8, !tbaa !28
  %170 = add nsw i64 %168, %169
  %171 = getelementptr inbounds double, ptr %163, i64 %170
  store double %162, ptr %171, align 8, !tbaa !21
  br label %172

172:                                              ; preds = %142
  %173 = load i64, ptr %14, align 8, !tbaa !28
  %174 = add nsw i64 %173, 1
  store i64 %174, ptr %14, align 8, !tbaa !28
  br label %136

175:                                              ; preds = %136
  br label %176

176:                                              ; preds = %175, %44
  br label %177

177:                                              ; preds = %176, %31
  %178 = load i32, ptr %10, align 4, !tbaa !10
  %179 = load ptr, ptr %8, align 8, !tbaa !12
  %180 = load i32, ptr %10, align 4, !tbaa !10
  %181 = load i32, ptr %11, align 4, !tbaa !10
  %182 = mul nsw i32 %180, %181
  %183 = sext i32 %182 to i64
  %184 = getelementptr inbounds double, ptr %179, i64 %183
  %185 = load ptr, ptr %7, align 8, !tbaa !3
  %186 = load ptr, ptr %15, align 8, !tbaa !24
  %187 = getelementptr inbounds nuw %struct._SUNQRData, ptr %186, i32 0, i32 1
  %188 = load ptr, ptr %187, align 8, !tbaa !31
  %189 = call i32 @N_VLinearCombination(i32 noundef %178, ptr noundef %184, ptr noundef %185, ptr noundef %188)
  %190 = load ptr, ptr %15, align 8, !tbaa !24
  %191 = getelementptr inbounds nuw %struct._SUNQRData, ptr %190, i32 0, i32 0
  %192 = load ptr, ptr %191, align 8, !tbaa !26
  %193 = load ptr, ptr %15, align 8, !tbaa !24
  %194 = getelementptr inbounds nuw %struct._SUNQRData, ptr %193, i32 0, i32 1
  %195 = load ptr, ptr %194, align 8, !tbaa !31
  %196 = load ptr, ptr %15, align 8, !tbaa !24
  %197 = getelementptr inbounds nuw %struct._SUNQRData, ptr %196, i32 0, i32 0
  %198 = load ptr, ptr %197, align 8, !tbaa !26
  call void @N_VLinearSum(double noundef 1.000000e+00, ptr noundef %192, double noundef -1.000000e+00, ptr noundef %195, ptr noundef %198)
  br label %199

199:                                              ; preds = %177, %6
  %200 = load ptr, ptr %15, align 8, !tbaa !24
  %201 = getelementptr inbounds nuw %struct._SUNQRData, ptr %200, i32 0, i32 0
  %202 = load ptr, ptr %201, align 8, !tbaa !26
  %203 = load ptr, ptr %15, align 8, !tbaa !24
  %204 = getelementptr inbounds nuw %struct._SUNQRData, ptr %203, i32 0, i32 0
  %205 = load ptr, ptr %204, align 8, !tbaa !26
  %206 = call double @N_VDotProd(ptr noundef %202, ptr noundef %205)
  %207 = load ptr, ptr %8, align 8, !tbaa !12
  %208 = load i32, ptr %10, align 4, !tbaa !10
  %209 = load i32, ptr %11, align 4, !tbaa !10
  %210 = mul nsw i32 %208, %209
  %211 = load i32, ptr %10, align 4, !tbaa !10
  %212 = add nsw i32 %210, %211
  %213 = sext i32 %212 to i64
  %214 = getelementptr inbounds double, ptr %207, i64 %213
  store double %206, ptr %214, align 8, !tbaa !21
  %215 = load ptr, ptr %8, align 8, !tbaa !12
  %216 = load i32, ptr %10, align 4, !tbaa !10
  %217 = load i32, ptr %11, align 4, !tbaa !10
  %218 = mul nsw i32 %216, %217
  %219 = load i32, ptr %10, align 4, !tbaa !10
  %220 = add nsw i32 %218, %219
  %221 = sext i32 %220 to i64
  %222 = getelementptr inbounds double, ptr %215, i64 %221
  %223 = load double, ptr %222, align 8, !tbaa !21
  %224 = fcmp ole double %223, 0.000000e+00
  br i1 %224, label %225, label %226

225:                                              ; preds = %199
  br label %237

226:                                              ; preds = %199
  %227 = load ptr, ptr %8, align 8, !tbaa !12
  %228 = load i32, ptr %10, align 4, !tbaa !10
  %229 = load i32, ptr %11, align 4, !tbaa !10
  %230 = mul nsw i32 %228, %229
  %231 = load i32, ptr %10, align 4, !tbaa !10
  %232 = add nsw i32 %230, %231
  %233 = sext i32 %232 to i64
  %234 = getelementptr inbounds double, ptr %227, i64 %233
  %235 = load double, ptr %234, align 8, !tbaa !21
  %236 = call double @sqrt(double noundef %235) #5, !tbaa !10
  br label %237

237:                                              ; preds = %226, %225
  %238 = phi double [ 0.000000e+00, %225 ], [ %236, %226 ]
  %239 = load ptr, ptr %8, align 8, !tbaa !12
  %240 = load i32, ptr %10, align 4, !tbaa !10
  %241 = load i32, ptr %11, align 4, !tbaa !10
  %242 = mul nsw i32 %240, %241
  %243 = load i32, ptr %10, align 4, !tbaa !10
  %244 = add nsw i32 %242, %243
  %245 = sext i32 %244 to i64
  %246 = getelementptr inbounds double, ptr %239, i64 %245
  store double %238, ptr %246, align 8, !tbaa !21
  %247 = load ptr, ptr %8, align 8, !tbaa !12
  %248 = load i32, ptr %10, align 4, !tbaa !10
  %249 = load i32, ptr %11, align 4, !tbaa !10
  %250 = mul nsw i32 %248, %249
  %251 = load i32, ptr %10, align 4, !tbaa !10
  %252 = add nsw i32 %250, %251
  %253 = sext i32 %252 to i64
  %254 = getelementptr inbounds double, ptr %247, i64 %253
  %255 = load double, ptr %254, align 8, !tbaa !21
  %256 = fdiv double 1.000000e+00, %255
  %257 = load ptr, ptr %15, align 8, !tbaa !24
  %258 = getelementptr inbounds nuw %struct._SUNQRData, ptr %257, i32 0, i32 0
  %259 = load ptr, ptr %258, align 8, !tbaa !26
  %260 = load ptr, ptr %7, align 8, !tbaa !3
  %261 = load i32, ptr %10, align 4, !tbaa !10
  %262 = sext i32 %261 to i64
  %263 = getelementptr inbounds ptr, ptr %260, i64 %262
  %264 = load ptr, ptr %263, align 8, !tbaa !14
  call void @N_VScale(double noundef %256, ptr noundef %259, ptr noundef %264)
  call void @llvm.lifetime.end.p0(i64 8, ptr %15) #5
  call void @llvm.lifetime.end.p0(i64 8, ptr %14) #5
  call void @llvm.lifetime.end.p0(i64 8, ptr %13) #5
  ret i32 0
}