; Function Attrs: nounwind uwtable
define noundef i32 @SUNQRAdd_DCGS2_SB(ptr noundef %0, ptr noundef %1, ptr noundef %2, i32 noundef %3, i32 noundef %4, ptr noundef readonly captures(none) %5) local_unnamed_addr #0 {
  %7 = load ptr, ptr %5, align 8, !tbaa !14
  tail call void @N_VScale(double noundef 1.000000e+00, ptr noundef %2, ptr noundef %7) #7
  %8 = icmp sgt i32 %3, 0
  br i1 %8, label %9, label %61

9:                                                ; preds = %6
  %10 = icmp eq i32 %3, 1
  %11 = load ptr, ptr %5, align 8, !tbaa !14
  br i1 %10, label %12, label %16

12:                                               ; preds = %9
  %13 = sext i32 %4 to i64
  %14 = getelementptr inbounds double, ptr %1, i64 %13
  %15 = tail call i32 @N_VDotProdMulti(i32 noundef 1, ptr noundef %11, ptr noundef %0, ptr noundef %14) #7
  %.pre = mul nuw nsw i32 %4, %3
  %.pre103 = sext i32 %.pre to i64
  br label %.loopexit

16:                                               ; preds = %9
  %17 = getelementptr inbounds nuw i8, ptr %5, i64 16
  %18 = load ptr, ptr %17, align 8, !tbaa !16
  %19 = tail call i32 @N_VDotProdMultiLocal(i32 noundef %3, ptr noundef %11, ptr noundef %0, ptr noundef %18) #7
  %20 = add nsw i32 %3, -1
  %21 = zext nneg i32 %20 to i64
  %22 = getelementptr inbounds nuw ptr, ptr %0, i64 %21
  %23 = load ptr, ptr %22, align 8, !tbaa !3
  %24 = load ptr, ptr %17, align 8, !tbaa !16
  %25 = zext nneg i32 %3 to i64
  %26 = getelementptr inbounds nuw double, ptr %24, i64 %25
  %27 = tail call i32 @N_VDotProdMultiLocal(i32 noundef %20, ptr noundef %23, ptr noundef %0, ptr noundef nonnull %26) #7
  %28 = shl nuw nsw i32 %3, 1
  %29 = add nsw i32 %28, -1
  %30 = load ptr, ptr %5, align 8, !tbaa !14
  %31 = load ptr, ptr %17, align 8, !tbaa !16
  %32 = tail call i32 @N_VDotProdMultiAllReduce(i32 noundef %29, ptr noundef %30, ptr noundef %31) #7
  %33 = load ptr, ptr %17, align 8, !tbaa !16
  %34 = mul nsw i32 %4, %3
  %35 = sext i32 %34 to i64
  %invariant.gep = getelementptr double, ptr %1, i64 %35
  br label %36

36:                                               ; preds = %16, %36
  %.096 = phi i64 [ 0, %16 ], [ %39, %36 ]
  %37 = getelementptr inbounds nuw double, ptr %33, i64 %.096
  %38 = load double, ptr %37, align 8, !tbaa !12
  %gep = getelementptr double, ptr %invariant.gep, i64 %.096
  store double %38, ptr %gep, align 8, !tbaa !12
  %39 = add nuw nsw i64 %.096, 1
  %exitcond.not = icmp eq i64 %39, %25
  br i1 %exitcond.not, label %40, label %36

40:                                               ; preds = %36
  %41 = getelementptr inbounds nuw double, ptr %33, i64 %25
  %42 = getelementptr inbounds nuw i8, ptr %5, i64 8
  %43 = load ptr, ptr %42, align 8, !tbaa !17
  %44 = tail call i32 @N_VLinearCombination(i32 noundef %20, ptr noundef nonnull %41, ptr noundef %0, ptr noundef %43) #7
  %45 = load ptr, ptr %22, align 8, !tbaa !3
  %46 = load ptr, ptr %42, align 8, !tbaa !17
  tail call void @N_VLinearSum(double noundef 1.000000e+00, ptr noundef %45, double noundef -1.000000e+00, ptr noundef %46, ptr noundef %45) #7
  %.not = icmp eq i32 %20, 0
  br i1 %.not, label %.loopexit, label %.lr.ph

.lr.ph:                                           ; preds = %40
  %47 = mul nsw i32 %20, %4
  %48 = sext i32 %47 to i64
  %invariant.gep98 = getelementptr double, ptr %1, i64 %48
  %49 = load ptr, ptr %17, align 8, !tbaa !16
  %invariant.gep100 = getelementptr inbounds nuw double, ptr %49, i64 %25
  br label %50

50:                                               ; preds = %.lr.ph, %50
  %.197 = phi i64 [ 0, %.lr.ph ], [ %54, %50 ]
  %gep99 = getelementptr double, ptr %invariant.gep98, i64 %.197
  %51 = load double, ptr %gep99, align 8, !tbaa !12
  %gep101 = getelementptr inbounds nuw double, ptr %invariant.gep100, i64 %.197
  %52 = load double, ptr %gep101, align 8, !tbaa !12
  %53 = fadd double %51, %52
  store double %53, ptr %gep99, align 8, !tbaa !12
  %54 = add nuw nsw i64 %.197, 1
  %exitcond102.not = icmp eq i64 %54, %21
  br i1 %exitcond102.not, label %.loopexit, label %50

.loopexit:                                        ; preds = %50, %40, %12
  %.pre-phi104 = phi i64 [ %35, %40 ], [ %.pre103, %12 ], [ %35, %50 ]
  %55 = getelementptr inbounds double, ptr %1, i64 %.pre-phi104
  %56 = getelementptr inbounds nuw i8, ptr %5, i64 8
  %57 = load ptr, ptr %56, align 8, !tbaa !17
  %58 = tail call i32 @N_VLinearCombination(i32 noundef %3, ptr noundef %55, ptr noundef %0, ptr noundef %57) #7
  %59 = load ptr, ptr %5, align 8, !tbaa !14
  %60 = load ptr, ptr %56, align 8, !tbaa !17
  tail call void @N_VLinearSum(double noundef 1.000000e+00, ptr noundef %59, double noundef -1.000000e+00, ptr noundef %60, ptr noundef %59) #7
  br label %61

61:                                               ; preds = %.loopexit, %6
  %62 = load ptr, ptr %5, align 8, !tbaa !14
  %63 = tail call double @N_VDotProd(ptr noundef %62, ptr noundef %62) #7
  %64 = fcmp ugt double %63, 0.000000e+00
  br i1 %64, label %65, label %67

65:                                               ; preds = %61
  %66 = tail call double @sqrt(double noundef %63) #7, !tbaa !8
  br label %67

67:                                               ; preds = %61, %65
  %68 = phi double [ %66, %65 ], [ 0.000000e+00, %61 ]
  %69 = add i32 %4, 1
  %70 = mul i32 %69, %3
  %71 = sext i32 %70 to i64
  %72 = getelementptr inbounds double, ptr %1, i64 %71
  store double %68, ptr %72, align 8, !tbaa !12
  %73 = fdiv double 1.000000e+00, %68
  %74 = load ptr, ptr %5, align 8, !tbaa !14
  %75 = sext i32 %3 to i64
  %76 = getelementptr inbounds ptr, ptr %0, i64 %75
  %77 = load ptr, ptr %76, align 8, !tbaa !3
  tail call void @N_VScale(double noundef %73, ptr noundef %74, ptr noundef %77) #7
  ret i32 0
}